{
   <insert_a_suppression_name_here>
   Memcheck:Value8
   fun:_ZN7Imf_2_213PizCompressor8compressEPKciN9Imath_2_23BoxINS3_4Vec2IiEEEERS2_
   fun:_ZN7Imf_2_213PizCompressor8compressEPKciiRS2_
   fun:_ZN7Imf_2_212_GLOBAL__N_114LineBufferTask7executeEv
   fun:_ZN13IlmThread_2_210ThreadPool7addTaskEPNS_4TaskE
   fun:_ZN7Imf_2_210OutputFile11writePixelsEi
   fun:_ZN6Camera9writeRgbaEPKcPN7Imf_2_24RgbaE
   fun:_ZN6Camera6renderEPKc
   fun:main
}

{
   <insert_a_suppression_name_here>
   Memcheck:Cond
   fun:_ZN7Imf_2_213PizCompressor8compressEPKciN9Imath_2_23BoxINS3_4Vec2IiEEEERS2_
   fun:_ZN7Imf_2_213PizCompressor8compressEPKciiRS2_
   fun:_ZN7Imf_2_212_GLOBAL__N_114LineBufferTask7executeEv
   fun:_ZN13IlmThread_2_210ThreadPool7addTaskEPNS_4TaskE
   fun:_ZN7Imf_2_210OutputFile11writePixelsEi
   fun:_ZN6Camera9writeRgbaEPKcPN7Imf_2_24RgbaE
   fun:_ZN6Camera6renderEPKc
   fun:main
}

{
   <insert_a_suppression_name_here>
   Memcheck:Cond
   fun:_ZN7Imf_2_213PizCompressor8compressEPKciN9Imath_2_23BoxINS3_4Vec2IiEEEERS2_
   fun:_ZN7Imf_2_213PizCompressor8compressEPKciiRS2_
   fun:_ZN7Imf_2_212_GLOBAL__N_114LineBufferTask7executeEv
   fun:_ZN13IlmThread_2_210ThreadPool7addTaskEPNS_4TaskE
   fun:_ZN7Imf_2_210OutputFile11writePixelsEi
   fun:_ZN6Camera9writeRgbaEPKcPN7Imf_2_24RgbaE
   fun:_ZN6Camera6renderEPKc
   fun:main
}

{
   <insert_a_suppression_name_here>
   Memcheck:Value8
   fun:_ZN7Imf_2_213PizCompressor8compressEPKciN9Imath_2_23BoxINS3_4Vec2IiEEEERS2_
   fun:_ZN7Imf_2_213PizCompressor8compressEPKciiRS2_
   fun:_ZN7Imf_2_212_GLOBAL__N_114LineBufferTask7executeEv
   fun:_ZN13IlmThread_2_210ThreadPool7addTaskEPNS_4TaskE
   fun:_ZN7Imf_2_210OutputFile11writePixelsEi
   fun:_ZN6Camera9writeRgbaEPKcPN7Imf_2_24RgbaE
   fun:_ZN6Camera6renderEPKc
   fun:main
}

{
   <insert_a_suppression_name_here>
   Memcheck:Leak
   match-leak-kinds: possible
   fun:malloc_zone_malloc
   fun:_objc_copyClassNamesForImage
   fun:_ZL9protocolsv
   fun:_Z9readClassP10objc_classbb
   fun:gc_init
   fun:_ZL33objc_initializeClassPair_internalP10objc_classPKcS0_S0_
   fun:layout_string_create
   fun:_ZL12realizeClassP10objc_class
   fun:_ZL22copySwiftV1MangledNamePKcb
   fun:_ZL22copySwiftV1MangledNamePKcb
   fun:_ZL22copySwiftV1MangledNamePKcb
   fun:_ZL22copySwiftV1MangledNamePKcb
}

{
   <insert_a_suppression_name_here>
   Memcheck:Leak
   match-leak-kinds: definite
   fun:malloc
   fun:__Balloc_D2A
   fun:__d2b_D2A
   fun:__strtodg
   fun:__strtopx
   fun:strtold_l
   fun:_ZNSt3__115__num_get_floatIdEET_PKcS3_Rj
   fun:_ZNKSt3__17num_getIcNS_19istreambuf_iteratorIcNS_11char_traitsIcEEEEE6do_getES4_S4_RNS_8ios_baseERjRd
   fun:_ZNSt3__113basic_istreamIcNS_11char_traitsIcEEErsERd
   fun:_ZrsRNSt3__113basic_istreamIcNS_11char_traitsIcEEEER5Point
   fun:_ZN6Parser5parseEPKc
   fun:main
}

{
   <insert_a_suppression_name_here>
   Memcheck:Leak
   match-leak-kinds: definite
   fun:malloc
   fun:_Znwm
   fun:_ZN6Parser5parseEPKc
   fun:main
}